; Function Attrs: mustprogress nounwind uwtable
define dso_local void @_ZN4llvm17DecodePSHUFLWMaskEjjRNS_15SmallVectorImplIiEE(i32 noundef %0, i32 noundef %1, ptr noundef nonnull align 8 dereferenceable(16) %2) local_unnamed_addr #0 {
  %.not27 = icmp eq i32 %0, 0
  br i1 %.not27, label %._crit_edge, label %.preheader23.lr.ph

.preheader23.lr.ph:                               ; preds = %3
  %4 = getelementptr inbounds nuw i8, ptr %2, i64 16
  br label %.preheader23

.preheader23:                                     ; preds = %.preheader23.lr.ph, %30
  %.028 = phi i32 [ 0, %.preheader23.lr.ph ], [ %31, %30 ]
  br label %5

5:                                                ; preds = %.preheader23, %_ZN4llvm23SmallVectorTemplateBaseIiLb1EE9push_backEi.exit
  %.01725 = phi i32 [ %1, %.preheader23 ], [ %17, %_ZN4llvm23SmallVectorTemplateBaseIiLb1EE9push_backEi.exit ]
  %.01824 = phi i32 [ 0, %.preheader23 ], [ %18, %_ZN4llvm23SmallVectorTemplateBaseIiLb1EE9push_backEi.exit ]
  %6 = and i32 %.01725, 3
  %7 = or disjoint i32 %6, %.028
  %8 = tail call noundef i64 @_ZNK4llvm15SmallVectorBaseIjE4sizeEv(ptr noundef nonnull align 8 dereferenceable(16) %2) #4
  %9 = add i64 %8, 1
  %10 = tail call noundef i64 @_ZNK4llvm15SmallVectorBaseIjE8capacityEv(ptr noundef nonnull align 8 dereferenceable(16) %2) #4
  %.not.i.i.i = icmp ugt i64 %9, %10
  br i1 %.not.i.i.i, label %11, label %_ZN4llvm23SmallVectorTemplateBaseIiLb1EE9push_backEi.exit

11:                                               ; preds = %5
  tail call void @_ZN4llvm15SmallVectorBaseIjE8grow_podEPvmm(ptr noundef nonnull align 8 dereferenceable(16) %2, ptr noundef nonnull %4, i64 noundef %9, i64 noundef 4) #4
  br label %_ZN4llvm23SmallVectorTemplateBaseIiLb1EE9push_backEi.exit

_ZN4llvm23SmallVectorTemplateBaseIiLb1EE9push_backEi.exit: ; preds = %5, %11
  %12 = load ptr, ptr %2, align 8
  %13 = tail call noundef i64 @_ZNK4llvm15SmallVectorBaseIjE4sizeEv(ptr noundef nonnull align 8 dereferenceable(16) %2) #4
  %14 = getelementptr inbounds i32, ptr %12, i64 %13
  store i32 %7, ptr %14, align 1
  %15 = tail call noundef i64 @_ZNK4llvm15SmallVectorBaseIjE4sizeEv(ptr noundef nonnull align 8 dereferenceable(16) %2) #4
  %16 = add i64 %15, 1
  tail call void @_ZN4llvm15SmallVectorBaseIjE8set_sizeEm(ptr noundef nonnull align 8 dereferenceable(16) %2, i64 noundef %16) #4
  %17 = lshr i32 %.01725, 2
  %18 = add nuw nsw i32 %.01824, 1
  %.not19 = icmp eq i32 %18, 4
  br i1 %.not19, label %.preheader, label %5, !llvm.loop !27

.preheader:                                       ; preds = %_ZN4llvm23SmallVectorTemplateBaseIiLb1EE9push_backEi.exit, %_ZN4llvm23SmallVectorTemplateBaseIiLb1EE9push_backEi.exit22
  %.01626 = phi i32 [ %29, %_ZN4llvm23SmallVectorTemplateBaseIiLb1EE9push_backEi.exit22 ], [ 4, %_ZN4llvm23SmallVectorTemplateBaseIiLb1EE9push_backEi.exit ]
  %19 = add nuw nsw i32 %.01626, %.028
  %20 = tail call noundef i64 @_ZNK4llvm15SmallVectorBaseIjE4sizeEv(ptr noundef nonnull align 8 dereferenceable(16) %2) #4
  %21 = add i64 %20, 1
  %22 = tail call noundef i64 @_ZNK4llvm15SmallVectorBaseIjE8capacityEv(ptr noundef nonnull align 8 dereferenceable(16) %2) #4
  %.not.i.i.i21 = icmp ugt i64 %21, %22
  br i1 %.not.i.i.i21, label %23, label %_ZN4llvm23SmallVectorTemplateBaseIiLb1EE9push_backEi.exit22

23:                                               ; preds = %.preheader
  tail call void @_ZN4llvm15SmallVectorBaseIjE8grow_podEPvmm(ptr noundef nonnull align 8 dereferenceable(16) %2, ptr noundef nonnull %4, i64 noundef %21, i64 noundef 4) #4
  br label %_ZN4llvm23SmallVectorTemplateBaseIiLb1EE9push_backEi.exit22

_ZN4llvm23SmallVectorTemplateBaseIiLb1EE9push_backEi.exit22: ; preds = %.preheader, %23
  %24 = load ptr, ptr %2, align 8
  %25 = tail call noundef i64 @_ZNK4llvm15SmallVectorBaseIjE4sizeEv(ptr noundef nonnull align 8 dereferenceable(16) %2) #4
  %26 = getelementptr inbounds i32, ptr %24, i64 %25
  store i32 %19, ptr %26, align 1
  %27 = tail call noundef i64 @_ZNK4llvm15SmallVectorBaseIjE4sizeEv(ptr noundef nonnull align 8 dereferenceable(16) %2) #4
  %28 = add i64 %27, 1
  tail call void @_ZN4llvm15SmallVectorBaseIjE8set_sizeEm(ptr noundef nonnull align 8 dereferenceable(16) %2, i64 noundef %28) #4
  %29 = add nuw nsw i32 %.01626, 1
  %.not20 = icmp eq i32 %29, 8
  br i1 %.not20, label %30, label %.preheader, !llvm.loop !28

30:                                               ; preds = %_ZN4llvm23SmallVectorTemplateBaseIiLb1EE9push_backEi.exit22
  %31 = add i32 %.028, 8
  %.not = icmp eq i32 %31, %0
  br i1 %.not, label %._crit_edge, label %.preheader23, !llvm.loop !29

._crit_edge:                                      ; preds = %30, %3
  ret void
}